(lp0
(NI0
tp1
ag1
ag1
ag1
ag1
ag1
ag1
ag1
ag1
ag1
a(S"It's a ME, Mario"
p2
I3
tp3
a(S'Bowser steals girlfriends'
p4
I4
tp5
a(S'Nobody thinks about Luigi'
p6
I3
tp7
a(S"Peach doesn't want Mario"
p8
I5
tp9
a.